; Function Attrs: nofree norecurse nosync nounwind memory(argmem: readwrite) uwtable
define internal void @pred8x8l_left_dc_9_c(ptr noundef captures(none) %0, i32 noundef %1, i32 %2, i64 noundef %3) #3 {
  %5 = lshr i64 %3, 1
  %6 = trunc i64 %5 to i32
  %.not = icmp eq i32 %1, 0
  %7 = xor i64 %5, -1
  %sext = shl i64 %7, 32
  %8 = ashr exact i64 %sext, 31
  %9 = getelementptr inbounds i8, ptr %0, i64 %8
  %10 = getelementptr inbounds i8, ptr %0, i64 -2
  %.in.in = select i1 %.not, ptr %10, ptr %9
  %.in = load i16, ptr %.in.in, align 2, !tbaa !9
  %11 = zext i16 %.in to i32
  %12 = load i16, ptr %10, align 2, !tbaa !9
  %13 = zext i16 %12 to i32
  %14 = shl nuw nsw i32 %13, 1
  %15 = shl i64 %5, 32
  %sext67 = add i64 %15, -4294967296
  %16 = ashr exact i64 %sext67, 31
  %17 = getelementptr inbounds i8, ptr %0, i64 %16
  %18 = load i16, ptr %17, align 2, !tbaa !9
  %19 = zext i16 %18 to i32
  %20 = add nuw nsw i32 %19, 2
  %21 = add nuw nsw i32 %20, %11
  %22 = add nuw nsw i32 %21, %14
  %23 = lshr i32 %22, 2
  %24 = shl nuw nsw i32 %19, 1
  %25 = shl nsw i32 %6, 1
  %26 = sext i32 %25 to i64
  %27 = getelementptr i16, ptr %0, i64 %26
  %28 = getelementptr i8, ptr %27, i64 -2
  %29 = load i16, ptr %28, align 2, !tbaa !9
  %30 = zext i16 %29 to i32
  %31 = add nuw nsw i32 %30, 2
  %32 = add nuw nsw i32 %31, %13
  %33 = add nuw nsw i32 %32, %24
  %34 = lshr i32 %33, 2
  %35 = shl nuw nsw i32 %30, 1
  %36 = mul i64 %5, 12884901888
  %sext68 = add i64 %36, -4294967296
  %37 = ashr exact i64 %sext68, 31
  %38 = getelementptr inbounds i8, ptr %0, i64 %37
  %39 = load i16, ptr %38, align 2, !tbaa !9
  %40 = zext i16 %39 to i32
  %41 = add nuw nsw i32 %20, %35
  %42 = add nuw nsw i32 %41, %40
  %43 = lshr i32 %42, 2
  %44 = shl nuw nsw i32 %40, 1
  %45 = shl nsw i32 %6, 2
  %46 = sext i32 %45 to i64
  %47 = getelementptr i16, ptr %0, i64 %46
  %48 = getelementptr i8, ptr %47, i64 -2
  %49 = load i16, ptr %48, align 2, !tbaa !9
  %50 = zext i16 %49 to i32
  %51 = add nuw nsw i32 %31, %44
  %52 = add nuw nsw i32 %51, %50
  %53 = lshr i32 %52, 2
  %54 = shl nuw nsw i32 %50, 1
  %55 = mul i64 %5, 21474836480
  %sext69 = add i64 %55, -4294967296
  %56 = ashr exact i64 %sext69, 31
  %57 = getelementptr inbounds i8, ptr %0, i64 %56
  %58 = load i16, ptr %57, align 2, !tbaa !9
  %59 = zext i16 %58 to i32
  %60 = add nuw nsw i32 %40, 2
  %61 = add nuw nsw i32 %60, %54
  %62 = add nuw nsw i32 %61, %59
  %63 = lshr i32 %62, 2
  %64 = shl nuw nsw i32 %59, 1
  %65 = mul i64 %5, 25769803776
  %sext70 = add i64 %65, -4294967296
  %66 = ashr exact i64 %sext70, 31
  %67 = getelementptr inbounds i8, ptr %0, i64 %66
  %68 = load i16, ptr %67, align 2, !tbaa !9
  %69 = zext i16 %68 to i32
  %70 = add nuw nsw i32 %50, 2
  %71 = add nuw nsw i32 %70, %64
  %72 = add nuw nsw i32 %71, %69
  %73 = lshr i32 %72, 2
  %74 = shl nuw nsw i32 %69, 1
  %75 = mul i64 %5, 30064771072
  %sext71 = add i64 %75, -4294967296
  %76 = ashr exact i64 %sext71, 31
  %77 = getelementptr inbounds i8, ptr %0, i64 %76
  %78 = load i16, ptr %77, align 2, !tbaa !9
  %79 = zext i16 %78 to i32
  %80 = add nuw nsw i32 %59, 2
  %81 = add nuw nsw i32 %80, %74
  %82 = add nuw nsw i32 %81, %79
  %83 = lshr i32 %82, 2
  %84 = mul nuw nsw i32 %79, 3
  %85 = add nuw nsw i32 %69, 2
  %86 = add nuw nsw i32 %85, %84
  %87 = lshr i32 %86, 2
  %88 = add nuw nsw i32 %23, 4
  %89 = add nuw nsw i32 %88, %34
  %90 = add nuw nsw i32 %89, %43
  %91 = add nuw nsw i32 %90, %53
  %92 = add nuw nsw i32 %91, %63
  %93 = add nuw nsw i32 %92, %73
  %94 = add nuw nsw i32 %93, %87
  %95 = add nuw nsw i32 %94, %83
  %96 = lshr i32 %95, 3
  %97 = zext nneg i32 %96 to i64
  %98 = mul nuw i64 %97, 281479271743489
  %99 = ashr exact i64 %15, 31
  br label %100

100:                                              ; preds = %4, %100
  %.074 = phi i32 [ 0, %4 ], [ %103, %100 ]
  %.06673 = phi ptr [ %0, %4 ], [ %102, %100 ]
  store i64 %98, ptr %.06673, align 8, !tbaa !8
  %101 = getelementptr inbounds nuw i8, ptr %.06673, i64 8
  store i64 %98, ptr %101, align 8, !tbaa !8
  %102 = getelementptr inbounds i8, ptr %.06673, i64 %99
  %103 = add nuw nsw i32 %.074, 1
  %exitcond.not = icmp eq i32 %103, 8
  br i1 %exitcond.not, label %104, label %100, !llvm.loop !14

104:                                              ; preds = %100
  ret void
}